target datalayout = "e-m:e-p270:32:32-p271:32:32-p272:64:64-i64:64-i128:128-f80:128-n8:16:32:64-S128"
target triple = "x86_64-pc-linux-gnu"

%struct.png_color_8_struct = type { i8, i8, i8, i8, i8 }
%struct.png_color_16_struct = type { i8, i16, i16, i16, i16 }
%struct.png_colorspace = type { i32, %struct.png_xy, %struct.png_XYZ, i16, i16 }
%struct.png_xy = type { i32, i32, i32, i32, i32, i32, i32, i32 }
%struct.png_XYZ = type { i32, i32, i32, i32, i32, i32, i32, i32, i32 }
%struct.png_info_def = type { i32, i32, i32, i64, ptr, i16, i16, i8, i8, i8, i8, i8, i8, i8, i8, [8 x i8], %struct.png_colorspace, ptr, ptr, i32, i32, i32, ptr, %struct.png_time_struct, %struct.png_color_8_struct, ptr, %struct.png_color_16_struct, %struct.png_color_16_struct, i32, i32, i8, i32, i32, i8, ptr, ptr, i32, i32, ptr, ptr, i8, i8, i32, ptr, i32, ptr, i32, i8, ptr, ptr, ptr }
%struct.png_time_struct = type { i16, i8, i8, i8, i8, i8 }

; Function Attrs: nounwind uwtable
define hidden i32 @png_get_text(ptr noalias noundef %0, ptr noalias noundef %1, ptr noundef %2, ptr noundef %3) #0 {
  %5 = alloca i32, align 4
  %6 = alloca ptr, align 8
  %7 = alloca ptr, align 8
  %8 = alloca ptr, align 8
  %9 = alloca ptr, align 8
  store ptr %0, ptr %6, align 8
  store ptr %1, ptr %7, align 8
  store ptr %2, ptr %8, align 8
  store ptr %3, ptr %9, align 8
  %10 = load ptr, ptr %6, align 8
  %11 = icmp ne ptr %10, null
  br i1 %11, label %12, label %40

12:                                               ; preds = %4
  %13 = load ptr, ptr %7, align 8
  %14 = icmp ne ptr %13, null
  br i1 %14, label %15, label %40

15:                                               ; preds = %12
  %16 = load ptr, ptr %7, align 8
  %17 = getelementptr inbounds %struct.png_info_def, ptr %16, i32 0, i32 20
  %18 = load i32, ptr %17, align 4
  %19 = icmp sgt i32 %18, 0
  br i1 %19, label %20, label %40

20:                                               ; preds = %15
  %21 = load ptr, ptr %8, align 8
  %22 = icmp ne ptr %21, null
  br i1 %22, label %23, label %28

23:                                               ; preds = %20
  %24 = load ptr, ptr %7, align 8
  %25 = getelementptr inbounds %struct.png_info_def, ptr %24, i32 0, i32 22
  %26 = load ptr, ptr %25, align 8
  %27 = load ptr, ptr %8, align 8
  store ptr %26, ptr %27, align 8
  br label %28

28:                                               ; preds = %23, %20
  %29 = load ptr, ptr %9, align 8
  %30 = icmp ne ptr %29, null
  br i1 %30, label %31, label %36

31:                                               ; preds = %28
  %32 = load ptr, ptr %7, align 8
  %33 = getelementptr inbounds %struct.png_info_def, ptr %32, i32 0, i32 20
  %34 = load i32, ptr %33, align 4
  %35 = load ptr, ptr %9, align 8
  store i32 %34, ptr %35, align 4
  br label %36

36:                                               ; preds = %31, %28
  %37 = load ptr, ptr %7, align 8
  %38 = getelementptr inbounds %struct.png_info_def, ptr %37, i32 0, i32 20
  %39 = load i32, ptr %38, align 4
  store i32 %39, ptr %5, align 4
  br label %46

40:                                               ; preds = %15, %12, %4
  %41 = load ptr, ptr %9, align 8
  %42 = icmp ne ptr %41, null
  br i1 %42, label %43, label %45

43:                                               ; preds = %40
  %44 = load ptr, ptr %9, align 8
  store i32 0, ptr %44, align 4
  br label %45

45:                                               ; preds = %43, %40
  store i32 0, ptr %5, align 4
  br label %46

46:                                               ; preds = %45, %36
  %47 = load i32, ptr %5, align 4
  ret i32 %47
}