; Function Attrs: mustprogress nofree norecurse nosync nounwind willreturn memory(argmem: readwrite) uwtable
define hidden i32 @png_get_text(ptr noalias noundef readnone %0, ptr noalias noundef readonly %1, ptr noundef writeonly %2, ptr noundef writeonly %3) local_unnamed_addr #3 {
  %5 = icmp ne ptr %0, null
  %6 = icmp ne ptr %1, null
  %or.cond = and i1 %5, %6
  br i1 %or.cond, label %7, label %16

7:                                                ; preds = %4
  %8 = getelementptr inbounds i8, ptr %1, i64 148
  %9 = load i32, ptr %8, align 4
  %10 = icmp sgt i32 %9, 0
  br i1 %10, label %11, label %16

11:                                               ; preds = %7
  %.not16 = icmp eq ptr %2, null
  br i1 %.not16, label %15, label %12

12:                                               ; preds = %11
  %13 = getelementptr inbounds i8, ptr %1, i64 160
  %14 = load ptr, ptr %13, align 8
  store ptr %14, ptr %2, align 8
  br label %15

15:                                               ; preds = %12, %11
  %.not17 = icmp eq ptr %3, null
  br i1 %.not17, label %17, label %.sink.split

16:                                               ; preds = %7, %4
  %.not = icmp eq ptr %3, null
  br i1 %.not, label %17, label %.sink.split

.sink.split:                                      ; preds = %16, %15
  %.sink = phi i32 [ %9, %15 ], [ 0, %16 ]
  store i32 %.sink, ptr %3, align 4
  br label %17

17:                                               ; preds = %.sink.split, %15, %16
  %.0 = phi i32 [ 0, %16 ], [ %9, %15 ], [ %.sink, %.sink.split ]
  ret i32 %.0
}